target datalayout = "e-m:e-p270:32:32-p271:32:32-p272:64:64-i64:64-i128:128-f80:128-n8:16:32:64-S128"
target triple = "x86_64-pc-linux-gnu"

; Function Attrs: nounwind uwtable
define internal i32 @_cmsQuickFloor(double noundef %0) #0 {
  %2 = alloca double, align 8
  store double %0, ptr %2, align 8
  %3 = load double, ptr %2, align 8
  %4 = call double @llvm.floor.f64(double %3)
  %5 = fptosi double %4 to i32
  ret i32 %5
}

; Function Attrs: nounwind uwtable
define internal zeroext i16 @_cmsQuickFloorWord(double noundef %0) #0 {
  %2 = alloca double, align 8
  store double %0, ptr %2, align 8
  %3 = load double, ptr %2, align 8
  %4 = fsub double %3, 3.276700e+04
  %5 = call i32 @_cmsQuickFloor(double noundef %4)
  %6 = trunc i32 %5 to i16
  %7 = zext i16 %6 to i32
  %8 = add i32 %7, 32767
  %9 = trunc i32 %8 to i16
  ret i16 %9
}

; Function Attrs: nounwind uwtable
define internal zeroext i16 @_cmsQuickSaturateWord(double noundef %0) #0 {
  %2 = alloca i16, align 2
  %3 = alloca double, align 8
  store double %0, ptr %3, align 8
  %4 = load double, ptr %3, align 8
  %5 = fadd double %4, 5.000000e-01
  store double %5, ptr %3, align 8
  %6 = load double, ptr %3, align 8
  %7 = fcmp ole double %6, 0.000000e+00
  br i1 %7, label %8, label %9

8:                                                ; preds = %1
  store i16 0, ptr %2, align 2
  br label %16

9:                                                ; preds = %1
  %10 = load double, ptr %3, align 8
  %11 = fcmp oge double %10, 6.553500e+04
  br i1 %11, label %12, label %13

12:                                               ; preds = %9
  store i16 -1, ptr %2, align 2
  br label %16

13:                                               ; preds = %9
  %14 = load double, ptr %3, align 8
  %15 = call zeroext i16 @_cmsQuickFloorWord(double noundef %14)
  store i16 %15, ptr %2, align 2
  br label %16

16:                                               ; preds = %13, %12, %8
  %17 = load i16, ptr %2, align 2
  ret i16 %17
}

; Function Attrs: nounwind uwtable
define internal void @fromDBLto16SE(ptr noundef %0, ptr noundef %1) #0 {
  %3 = alloca ptr, align 8
  %4 = alloca ptr, align 8
  %5 = alloca double, align 8
  %6 = alloca i16, align 2
  store ptr %0, ptr %3, align 8
  store ptr %1, ptr %4, align 8
  %7 = load ptr, ptr %4, align 8
  %8 = load double, ptr %7, align 8
  store double %8, ptr %5, align 8
  %9 = load double, ptr %5, align 8
  %10 = fmul double %9, 6.553500e+04
  %11 = call zeroext i16 @_cmsQuickSaturateWord(double noundef %10)
  store i16 %11, ptr %6, align 2
  %12 = load i16, ptr %6, align 2
  %13 = zext i16 %12 to i32
  %14 = shl i32 %13, 8
  %15 = trunc i32 %14 to i16
  %16 = zext i16 %15 to i32
  %17 = load i16, ptr %6, align 2
  %18 = zext i16 %17 to i32
  %19 = ashr i32 %18, 8
  %20 = or i32 %16, %19
  %21 = trunc i32 %20 to i16
  %22 = load ptr, ptr %3, align 8
  store i16 %21, ptr %22, align 2
  ret void
}