; Function Attrs: mustprogress nofree norecurse nosync nounwind willreturn memory(argmem: readwrite) uwtable
define internal void @fromDBLto16SE(ptr nocapture noundef writeonly %0, ptr nocapture noundef readonly %1) #3 {
  %3 = load double, ptr %1, align 8
  %4 = fmul double %3, 6.553500e+04
  %5 = fadd double %4, 5.000000e-01
  %6 = fcmp ugt double %5, 0.000000e+00
  br i1 %6, label %7, label %_cmsQuickSaturateWord.exit

7:                                                ; preds = %2
  %8 = fcmp ult double %5, 6.553500e+04
  br i1 %8, label %9, label %_cmsQuickSaturateWord.exit

9:                                                ; preds = %7
  %10 = fadd double %5, -3.276700e+04
  %11 = tail call double @llvm.floor.f64(double %10)
  %12 = fptosi double %11 to i32
  %13 = trunc i32 %12 to i16
  %14 = add i16 %13, 32767
  br label %_cmsQuickSaturateWord.exit

_cmsQuickSaturateWord.exit:                       ; preds = %2, %7, %9
  %.0.i = phi i16 [ %14, %9 ], [ 0, %2 ], [ -1, %7 ]
  %rev = tail call i16 @llvm.bswap.i16(i16 %.0.i)
  store i16 %rev, ptr %0, align 2
  ret void
}